
                          *= $0801
0801 4C 14 08 00 97
                          .BYTE $4C,$14,$08,$00,$97
               TURBOASS   = 780
0806 37 38 30             .TEXT "780"
0809 2C 30 3A 9E 32 30
                          .BYTE $2C,$30,$3A,$9E,$32,$30
080F 37 33 00 00 00
                          .BYTE $37,$33,$00,$00,$00
0814 A9 01                LDA #1
0816 8D 0C 03             STA TURBOASS
0819 4C 74 0C             JMP MAIN


               PRINT
                          .BLOCK
081C 68                   PLA
081D 8D 27 08             STA PRINT0+1
0820 68                   PLA
0821 8D 28 08             STA PRINT0+2
0824 A2 01                LDX #1
               PRINT0
0826 BD 26 08             LDA !*,X
0829 F0 06                BEQ PRINT1
082B 20 D2 FF             JSR $FFD2
082E E8                   INX
082F D0 F5                BNE PRINT0
               PRINT1
0831 38                   SEC
0832 8A                   TXA
0833 6D 27 08             ADC PRINT0+1
0836 8D 42 08             STA PRINT2+1
0839 A9 00                LDA #0
083B 6D 28 08             ADC PRINT0+2
083E 8D 43 08             STA PRINT2+2
               PRINT2
0841 4C 41 08             JMP !*
                          .BEND


               PRINTHB
                          .BLOCK
0844 48                   PHA
0845 4A                   LSR A
0846 4A                   LSR A
0847 4A                   LSR A
0848 4A                   LSR A
0849 20 4F 08             JSR PRINTHN
084C 68                   PLA
084D 29 0F                AND #$0F
               PRINTHN
084F 09 30                ORA #$30
0851 C9 3A                CMP #$3A
0853 90 02                BCC PRINTHN0
0855 69 06                ADC #6
               PRINTHN0
0857 20 D2 FF             JSR $FFD2
085A 60                   RTS
                          .BEND



               DELAY
                          .BLOCK
085B 8D 04 DD             STA $DD04
085E 8E 05 DD             STX $DD05
0861 A9 19                LDA #%00011001
0863 8D 0E DD             STA $DD0E
0866 A9 01                LDA #1
               WAIT
0868 2C 0E DD             BIT $DD0E
086B D0 FB                BNE WAIT
086D 60                   RTS
                          .BEND


               GATIMER    *= *+4
               GATIMERC   *= *+4


               INITTIMER
                          .BLOCK
0876 A9 00                LDA #0
0878 A2 03                LDX #3
               CLEAR
087A 9D 72 08             STA GATIMERC,X
087D CA                   DEX
087E 10 FA                BPL CLEAR
0880 20 92 08             JSR STARTTIMER
0883 20 C7 08             JSR STOPTIMER
0886 A2 03                LDX #3
               SETC
0888 BD 6E 08             LDA GATIMER,X
088B 9D 72 08             STA GATIMERC,X
088E CA                   DEX
088F 10 F7                BPL SETC
0891 60                   RTS
                          .BEND


               STARTTIMER
                          .BLOCK
0892 78                   SEI
0893 AD 11 D0             LDA $D011
0896 29 EF                AND #%11101111
                         ; STA $D011
0898 30 07                BMI ISBORDER
               WAITBORDER
089A AD 12 D0             LDA $D012
089D C9 1E                CMP #30
089F B0 F9                BCS WAITBORDER
               ISBORDER
08A1 A9 7F                LDA #%01111111
08A3 8D 0D DD             STA $DD0D
08A6 A9 00                LDA #0
08A8 8D 0E DD             STA $DD0E
08AB 8D 0F DD             STA $DD0F
08AE A9 FF                LDA #$FF
08B0 8D 04 DD             STA $DD04
08B3 8D 05 DD             STA $DD05
08B6 8D 06 DD             STA $DD06
08B9 8D 07 DD             STA $DD07
08BC A9 51                LDA #%01010001
08BE 8D 0F DD             STA $DD0F
08C1 A9 11                LDA #%00010001
08C3 8D 0E DD             STA $DD0E
08C6 60                   RTS
                          .BEND


               STOPTIMER
                          .BLOCK
08C7 A2 00                LDX #0
08C9 8E 0E DD             STX $DD0E
08CC D8                   CLD
08CD 38                   SEC
08CE AD 04 DD             LDA $DD04
08D1 49 FF                EOR #$FF
08D3 ED 72 08             SBC GATIMERC+0
08D6 8D 6E 08             STA GATIMER+0
08D9 AD 05 DD             LDA $DD05
08DC 49 FF                EOR #$FF
08DE ED 73 08             SBC GATIMERC+1
08E1 8D 6F 08             STA GATIMER+1
08E4 AD 06 DD             LDA $DD06
08E7 49 FF                EOR #$FF
08E9 ED 74 08             SBC GATIMERC+2
08EC 8D 70 08             STA GATIMER+2
08EF AD 07 DD             LDA $DD07
08F2 49 FF                EOR #$FF
08F4 ED 75 08             SBC GATIMERC+3
08F7 8D 71 08             STA GATIMER+3
08FA 58                   CLI
08FB AD 11 D0             LDA $D011
08FE 09 10                ORA #%00010000
0900 8D 11 D0             STA $D011
0903 60                   RTS
                          .BEND


               PRINTTIMER
                          .BLOCK
0904 AD 70 08             LDA GATIMER+2
0907 85 63                STA $63
0909 AD 71 08             LDA GATIMER+3
090C 85 62                STA $62
090E A2 90                LDX #$90
0910 38                   SEC
0911 20 49 BC             JSR $BC49
0914 A9 41                LDA #<R65536
0916 A0 09                LDY #>R65536
0918 20 28 BA             JSR $BA28
091B 20 0C BC             JSR $BC0C
091E AD 6E 08             LDA GATIMER+0
0921 85 63                STA $63
0923 AD 6F 08             LDA GATIMER+1
0926 85 62                STA $62
0928 A2 90                LDX #$90
092A 38                   SEC
092B 20 49 BC             JSR $BC49
092E 20 6A B8             JSR $B86A
0931 20 DD BD             JSR $BDDD
0934 AE 00 01             LDX $0100
0937 E0 20                CPX #32
0939 D0 03                BNE NEGATIVE
093B 18                   CLC
093C 69 01                ADC #1
               NEGATIVE
093E 4C 1E AB             JMP $AB1E
0941 91 00 00 00 00
               R65536     .BYTE $91,$00,$00,$00,$00
                          .BEND

0946 00        GSAVESP    .BYTE 0
               GASTACK    *= *+256

               SAVESTACK
                          .BLOCK
0A47 BA                   TSX
0A48 8E 46 09             STX GSAVESP
0A4B A2 00                LDX #0
               SAVE
0A4D BD 00 01             LDA $0100,X
0A50 9D 47 09             STA GASTACK,X
0A53 E8                   INX
0A54 D0 F7                BNE SAVE
0A56 60                   RTS
                          .BEND


               RESTORESTACK
                          .BLOCK
0A57 68                   PLA
0A58 8D 71 0A             STA RETURN+1
0A5B 68                   PLA
0A5C 8D 72 0A             STA RETURN+2
0A5F AE 46 09             LDX GSAVESP
0A62 E8                   INX
0A63 E8                   INX
0A64 9A                   TXS
0A65 A2 00                LDX #0
               RESTORE
0A67 BD 47 09             LDA GASTACK,X
0A6A 9D 00 01             STA $0100,X
0A6D E8                   INX
0A6E D0 F7                BNE RESTORE
               RETURN
0A70 4C 11 11             JMP $1111
                          .BEND

               ADDRESSING
0A73 61 11                .WORD BRKN
0A75 FF 0E                .WORD RIX
0A77 28 12                .WORD HLTN
0A79 2F 0F                .WORD MIX
0A7B A1 0D                .WORD RZ
0A7D A1 0D                .WORD RZ
0A7F B4 0D                .WORD MZ
0A81 B4 0D                .WORD MZ
0A83 8C 11                .WORD PHPN
0A85 8E 0D                .WORD B
0A87 6C 0D                .WORD N
0A89 8E 0D                .WORD B
0A8B 23 0E                .WORD RA
0A8D 23 0E                .WORD RA
0A8F 37 0E                .WORD MA
0A91 37 0E                .WORD MA
0A93 EF 0F                .WORD R
0A95 5F 0F                .WORD RIY
0A97 28 12                .WORD HLTN
0A99 BF 0F                .WORD MIY
0A9B C7 0D                .WORD RZX
0A9D C7 0D                .WORD RZX
0A9F F5 0D                .WORD MZX
0AA1 F5 0D                .WORD MZX
0AA3 6C 0D                .WORD N
0AA5 4B 0E                .WORD RAY
0AA7 6C 0D                .WORD N
0AA9 C3 0E                .WORD MAY
0AAB 4B 0E                .WORD RAX
0AAD 4B 0E                .WORD RAX
0AAF C3 0E                .WORD MAX
0AB1 C3 0E                .WORD MAX
0AB3 F2 11                .WORD JSRW
0AB5 FF 0E                .WORD RIX
0AB7 28 12                .WORD HLTN
0AB9 2F 0F                .WORD MIX
0ABB A1 0D                .WORD RZ
0ABD A1 0D                .WORD RZ
0ABF B4 0D                .WORD MZ
0AC1 B4 0D                .WORD MZ
0AC3 9F 11                .WORD PLPN
0AC5 8E 0D                .WORD B
0AC7 6C 0D                .WORD N
0AC9 8E 0D                .WORD B
0ACB 23 0E                .WORD RA
0ACD 23 0E                .WORD RA
0ACF 37 0E                .WORD MA
0AD1 37 0E                .WORD MA
0AD3 EF 0F                .WORD R
0AD5 5F 0F                .WORD RIY
0AD7 28 12                .WORD HLTN
0AD9 BF 0F                .WORD MIY
0ADB C7 0D                .WORD RZX
0ADD C7 0D                .WORD RZX
0ADF F5 0D                .WORD MZX
0AE1 F5 0D                .WORD MZX
0AE3 6C 0D                .WORD N
0AE5 4B 0E                .WORD RAY
0AE7 6C 0D                .WORD N
0AE9 C3 0E                .WORD MAY
0AEB 4B 0E                .WORD RAX
0AED 4B 0E                .WORD RAX
0AEF C3 0E                .WORD MAX
0AF1 C3 0E                .WORD MAX
0AF3 14 12                .WORD RTIN
0AF5 FF 0E                .WORD RIX
0AF7 28 12                .WORD HLTN
0AF9 2F 0F                .WORD MIX
0AFB A1 0D                .WORD RZ
0AFD A1 0D                .WORD RZ
0AFF B4 0D                .WORD MZ
0B01 B4 0D                .WORD MZ
0B03 8C 11                .WORD PHAN
0B05 8E 0D                .WORD B
0B07 6C 0D                .WORD N
0B09 8E 0D                .WORD B
0B0B B4 11                .WORD JMPW
0B0D 23 0E                .WORD RA
0B0F 37 0E                .WORD MA
0B11 37 0E                .WORD MA
0B13 EF 0F                .WORD R
0B15 5F 0F                .WORD RIY
0B17 28 12                .WORD HLTN
0B19 BF 0F                .WORD MIY
0B1B C7 0D                .WORD RZX
0B1D C7 0D                .WORD RZX
0B1F F5 0D                .WORD MZX
0B21 F5 0D                .WORD MZX
0B23 6C 0D                .WORD N
0B25 4B 0E                .WORD RAY
0B27 6C 0D                .WORD N
0B29 C3 0E                .WORD MAY
0B2B 4B 0E                .WORD RAX
0B2D 4B 0E                .WORD RAX
0B2F C3 0E                .WORD MAX
0B31 C3 0E                .WORD MAX
0B33 02 12                .WORD RTSN
0B35 FF 0E                .WORD RIX
0B37 28 12                .WORD HLTN
0B39 2F 0F                .WORD MIX
0B3B A1 0D                .WORD RZ
0B3D A1 0D                .WORD RZ
0B3F B4 0D                .WORD MZ
0B41 B4 0D                .WORD MZ
0B43 9F 11                .WORD PLAN
0B45 8E 0D                .WORD B
0B47 6C 0D                .WORD N
0B49 8E 0D                .WORD B
0B4B C2 11                .WORD JMPI
0B4D 23 0E                .WORD RA
0B4F 37 0E                .WORD MA
0B51 37 0E                .WORD MA
0B53 EF 0F                .WORD R
0B55 5F 0F                .WORD RIY
0B57 28 12                .WORD HLTN
0B59 BF 0F                .WORD MIY
0B5B C7 0D                .WORD RZX
0B5D C7 0D                .WORD RZX
0B5F F5 0D                .WORD MZX
0B61 F5 0D                .WORD MZX
0B63 6C 0D                .WORD N
0B65 4B 0E                .WORD RAY
0B67 6C 0D                .WORD N
0B69 C3 0E                .WORD MAY
0B6B 4B 0E                .WORD RAX
0B6D 4B 0E                .WORD RAX
0B6F C3 0E                .WORD MAX
0B71 C3 0E                .WORD MAX
0B73 8E 0D                .WORD B
0B75 FF 0E                .WORD WIX
0B77 8E 0D                .WORD B
0B79 FF 0E                .WORD RIX
0B7B A1 0D                .WORD WZ
0B7D A1 0D                .WORD WZ
0B7F A1 0D                .WORD WZ
0B81 A1 0D                .WORD RZ
0B83 6C 0D                .WORD N
0B85 8E 0D                .WORD B
0B87 6C 0D                .WORD N
0B89 8E 0D                .WORD B
0B8B 23 0E                .WORD WA
0B8D 23 0E                .WORD WA
0B8F 23 0E                .WORD WA
0B91 23 0E                .WORD RA
0B93 EF 0F                .WORD R
0B95 8F 0F                .WORD WIY
0B97 28 12                .WORD HLTN
0B99 8F 0F                .WORD WIY
0B9B C7 0D                .WORD WZX
0B9D C7 0D                .WORD WZX
0B9F C7 0D                .WORD WZY
0BA1 C7 0D                .WORD RZY
0BA3 6C 0D                .WORD N
0BA5 87 0E                .WORD WAY
0BA7 6C 0D                .WORD N
0BA9 87 0E                .WORD WAY
0BAB 87 0E                .WORD WAX
0BAD 87 0E                .WORD WAX
0BAF 87 0E                .WORD WAY
0BB1 87 0E                .WORD WAY
0BB3 8E 0D                .WORD B
0BB5 FF 0E                .WORD RIX
0BB7 8E 0D                .WORD B
0BB9 FF 0E                .WORD RIX
0BBB A1 0D                .WORD RZ
0BBD A1 0D                .WORD RZ
0BBF A1 0D                .WORD RZ
0BC1 A1 0D                .WORD RZ
0BC3 6C 0D                .WORD N
0BC5 8E 0D                .WORD B
0BC7 6C 0D                .WORD N
0BC9 8E 0D                .WORD B
0BCB 23 0E                .WORD RA
0BCD 23 0E                .WORD RA
0BCF 23 0E                .WORD RA
0BD1 23 0E                .WORD RA
0BD3 EF 0F                .WORD R
0BD5 5F 0F                .WORD RIY
0BD7 28 12                .WORD HLTN
0BD9 5F 0F                .WORD RIY
0BDB C7 0D                .WORD RZX
0BDD C7 0D                .WORD RZX
0BDF C7 0D                .WORD RZY
0BE1 C7 0D                .WORD RZY
0BE3 6C 0D                .WORD N
0BE5 4B 0E                .WORD RAY
0BE7 6C 0D                .WORD N
0BE9 4B 0E                .WORD RAY
0BEB 4B 0E                .WORD RAX
0BED 4B 0E                .WORD RAX
0BEF 4B 0E                .WORD RAY
0BF1 4B 0E                .WORD RAY
0BF3 8E 0D                .WORD B
0BF5 FF 0E                .WORD RIX
0BF7 8E 0D                .WORD B
0BF9 2F 0F                .WORD MIX
0BFB A1 0D                .WORD RZ
0BFD A1 0D                .WORD RZ
0BFF B4 0D                .WORD MZ
0C01 B4 0D                .WORD MZ
0C03 6C 0D                .WORD N
0C05 8E 0D                .WORD B
0C07 6C 0D                .WORD N
0C09 8E 0D                .WORD B
0C0B 23 0E                .WORD RA
0C0D 23 0E                .WORD RA
0C0F 37 0E                .WORD MA
0C11 37 0E                .WORD MA
0C13 EF 0F                .WORD R
0C15 5F 0F                .WORD RIY
0C17 28 12                .WORD HLTN
0C19 BF 0F                .WORD MIY
0C1B C7 0D                .WORD RZX
0C1D C7 0D                .WORD RZX
0C1F F5 0D                .WORD MZX
0C21 F5 0D                .WORD MZX
0C23 6C 0D                .WORD N
0C25 4B 0E                .WORD RAY
0C27 6C 0D                .WORD N
0C29 C3 0E                .WORD MAY
0C2B 4B 0E                .WORD RAX
0C2D 4B 0E                .WORD RAX
0C2F C3 0E                .WORD MAX
0C31 C3 0E                .WORD MAX
0C33 8E 0D                .WORD B
0C35 FF 0E                .WORD RIX
0C37 8E 0D                .WORD B
0C39 2F 0F                .WORD MIX
0C3B A1 0D                .WORD RZ
0C3D A1 0D                .WORD RZ
0C3F B4 0D                .WORD MZ
0C41 B4 0D                .WORD MZ
0C43 6C 0D                .WORD N
0C45 8E 0D                .WORD B
0C47 6C 0D                .WORD N
0C49 8E 0D                .WORD B
0C4B 23 0E                .WORD RA
0C4D 23 0E                .WORD RA
0C4F 37 0E                .WORD MA
0C51 37 0E                .WORD MA
0C53 EF 0F                .WORD R
0C55 5F 0F                .WORD RIY
0C57 28 12                .WORD HLTN
0C59 BF 0F                .WORD MIY
0C5B C7 0D                .WORD RZX
0C5D C7 0D                .WORD RZX
0C5F F5 0D                .WORD MZX
0C61 F5 0D                .WORD MZX
0C63 6C 0D                .WORD N
0C65 4B 0E                .WORD RAY
0C67 6C 0D                .WORD N
0C69 C3 0E                .WORD MAY
0C6B 4B 0E                .WORD RAX
0C6D 4B 0E                .WORD RAX
0C6F C3 0E                .WORD MAX
0C71 C3 0E                .WORD MAX

0C73 00        CMD        .BYTE 0

               MAIN
0C74 20 1C 08             JSR PRINT
0C77 0D                   .BYTE 13
0C78 91 43 50 55 54 49 4D 49 4E 47
                          .TEXT "‘CPUTIMING"
0C82 00                   .BYTE 0

0C83 BA                   TSX
0C84 8E E1 0C             STX ERROR+1
0C87 A9 00                LDA #0
0C89 8D 73 0C             STA CMD
0C8C 20 76 08             JSR INITTIMER

               LOOP
0C8F A9 73                LDA #<ADDRESSING
0C91 A2 0A                LDX #>ADDRESSING
0C93 18                   CLC
0C94 6D 73 0C             ADC CMD
0C97 90 01                BCC NOINC1
0C99 E8                   INX
               NOINC1
0C9A 18                   CLC
0C9B 6D 73 0C             ADC CMD
0C9E 90 01                BCC NOINC2
0CA0 E8                   INX
               NOINC2
0CA1 85 AC                STA 172
0CA3 86 AD                STX 173
0CA5 A0 00                LDY #0
0CA7 B1 AC                LDA (172),Y
0CA9 8D C1 0C             STA JUMP+1
0CAC C8                   INY
0CAD B1 AC                LDA (172),Y
0CAF 8D C2 0C             STA JUMP+2
0CB2 A9 00                LDA #0
0CB4 8D 6E 08             STA GATIMER+0
0CB7 8D 6F 08             STA GATIMER+1
0CBA 8D 70 08             STA GATIMER+2
0CBD 8D 71 08             STA GATIMER+3
               JUMP
0CC0 20 11 11             JSR $1111
               NOERROR
0CC3 EE 73 0C             INC CMD
0CC6 D0 C7                BNE LOOP

0CC8 4C 33 0D             JMP OK

               COMPARE
0CCB CD 6E 08             CMP GATIMER+0
0CCE D0 10                BNE ERROR
0CD0 AE 6F 08             LDX GATIMER+1
0CD3 D0 0B                BNE ERROR
0CD5 AE 70 08             LDX GATIMER+2
0CD8 D0 06                BNE ERROR
0CDA AE 71 08             LDX GATIMER+3
0CDD D0 01                BNE ERROR
0CDF 60                   RTS

               ERROR
0CE0 A2 11                LDX #$11
0CE2 9A                   TXS
0CE3 48                   PHA
0CE4 A9 0D                LDA #13
0CE6 20 D2 FF             JSR $FFD2
0CE9 AD 73 0C             LDA CMD
0CEC 20 44 08             JSR PRINTHB
0CEF 20 1C 08             JSR PRINT
0CF2 0D                   .BYTE 13
0CF3 43 4C 4F 43 4B 53 20
                          .TEXT "CLOCKS "
0CFA 00                   .BYTE 0
0CFB 20 04 09             JSR PRINTTIMER
0CFE 20 1C 08             JSR PRINT
0D01 0D                   .BYTE 13
0D02 52 49 47 48 54 20 20
                          .TEXT "RIGHT  "
0D09 00                   .BYTE 0
0D0A 68                   PLA
0D0B 8D 6E 08             STA GATIMER+0
0D0E A9 00                LDA #0
0D10 8D 6F 08             STA GATIMER+1
0D13 8D 70 08             STA GATIMER+2
0D16 8D 71 08             STA GATIMER+3
0D19 20 04 09             JSR PRINTTIMER
               WAITK
0D1C 20 E4 FF             JSR $FFE4
0D1F F0 FB                BEQ WAITK
0D21 C9 03                CMP #3
0D23 F0 03                BEQ STOP
0D25 4C C3 0C             JMP NOERROR
               STOP
0D28 AD 0C 03             LDA TURBOASS
0D2B F0 03                BEQ BASIC
0D2D 4C 00 80             JMP $8000
               BASIC
0D30 4C 74 A4             JMP $A474


               OK
0D33 20 1C 08             JSR PRINT
0D36 20 2D 20 4F 4B
                          .TEXT " - OK"
0D3B 0D 00                .BYTE 13,0
0D3D AD 0C 03             LDA TURBOASS
0D40 F0 08                BEQ LOAD
0D42 20 E4 FF  WAITKEY    JSR $FFE4
0D45 F0 FB                BEQ WAITKEY
0D47 4C 00 80             JMP $8000

               LOAD
0D4A A9 2F                LDA #47
0D4C 85 00                STA 0
0D4E 20 1C 08             JSR PRINT
0D51 49 52 51  NAME       .TEXT "IRQ"
               NAMELEN    = *-NAME
0D54 00                   .BYTE 0
0D55 A9 00                LDA #0
0D57 85 0A                STA $0A
0D59 85 B9                STA $B9
0D5B A9 03                LDA #NAMELEN
0D5D 85 B7                STA $B7
0D5F A9 51                LDA #<NAME
0D61 85 BB                STA $BB
0D63 A9 0D                LDA #>NAME
0D65 85 BC                STA $BC
0D67 68                   PLA
0D68 68                   PLA
0D69 4C 6F E1             JMP $E16F


               N
0D6C 20 47 0A             JSR SAVESTACK
0D6F AD 73 0C             LDA CMD
0D72 8D 7D 0D             STA NX
0D75 A9 7F                LDA #$7F
0D77 8D 0D DC             STA $DC0D
0D7A 20 92 08             JSR STARTTIMER
               NX
0D7D EA                   NOP
0D7E 20 C7 08             JSR STOPTIMER
0D81 A9 81                LDA #$81
0D83 8D 0D DC             STA $DC0D
0D86 20 57 0A             JSR RESTORESTACK
0D89 A9 02                LDA #2
0D8B 4C CB 0C             JMP COMPARE


               B
0D8E AD 73 0C             LDA CMD
0D91 8D 97 0D             STA BX
0D94 20 92 08             JSR STARTTIMER
               BX
0D97 A9 00                LDA #0
0D99 20 C7 08             JSR STOPTIMER
0D9C A9 02                LDA #2
0D9E 4C CB 0C             JMP COMPARE

               RZ
               WZ
                          .BLOCK
0DA1 AD 73 0C             LDA CMD
0DA4 8D AA 0D             STA COMMAND
0DA7 20 92 08             JSR STARTTIMER
               COMMAND
0DAA A5 02                LDA 2
0DAC 20 C7 08             JSR STOPTIMER
0DAF A9 03                LDA #3
0DB1 4C CB 0C             JMP COMPARE
                          .BEND


               MZ
                          .BLOCK
0DB4 AD 73 0C             LDA CMD
0DB7 8D BD 0D             STA COMMAND
0DBA 20 92 08             JSR STARTTIMER
               COMMAND
0DBD A5 02                LDA 2
0DBF 20 C7 08             JSR STOPTIMER
0DC2 A9 05                LDA #5
0DC4 4C CB 0C             JMP COMPARE
                          .BEND


               RZX
               RZY
               WZX
               WZY
                          .BLOCK
0DC7 AD 73 0C             LDA CMD
0DCA 8D D4 0D             STA NOWRAP
0DCD 20 92 08             JSR STARTTIMER
0DD0 A2 02                LDX #2
0DD2 A0 02                LDY #2
               NOWRAP
0DD4 B5 00                LDA 0,X
0DD6 20 C7 08             JSR STOPTIMER
0DD9 A9 08                LDA #8
0DDB 20 CB 0C             JSR COMPARE
0DDE AD 73 0C             LDA CMD
0DE1 8D EB 0D             STA WRAP
0DE4 20 92 08             JSR STARTTIMER
0DE7 A2 FF                LDX #$FF
0DE9 A0 FF                LDY #$FF
               WRAP
0DEB B5 03                LDA 3,X
0DED 20 C7 08             JSR STOPTIMER
0DF0 A9 08                LDA #8
0DF2 4C CB 0C             JMP COMPARE
                          .BEND



               MZX
               MZY
                          .BLOCK
0DF5 AD 73 0C             LDA CMD
0DF8 8D 02 0E             STA NOWRAP
0DFB 20 92 08             JSR STARTTIMER
0DFE A2 02                LDX #2
0E00 A0 02                LDY #2
               NOWRAP
0E02 A5 00                LDA 0
0E04 20 C7 08             JSR STOPTIMER
0E07 A9 0A                LDA #10
0E09 20 CB 0C             JSR COMPARE
0E0C AD 73 0C             LDA CMD
0E0F 8D 19 0E             STA WRAP
0E12 20 92 08             JSR STARTTIMER
0E15 A2 FF                LDX #$FF
0E17 A0 FF                LDY #$FF
               WRAP
0E19 A5 03                LDA 3
0E1B 20 C7 08             JSR STOPTIMER
0E1E A9 0A                LDA #10
0E20 4C CB 0C             JMP COMPARE
                          .BEND


               RA
               WA
                          .BLOCK
0E23 AD 73 0C             LDA CMD
0E26 8D 2C 0E             STA COMMAND
0E29 20 92 08             JSR STARTTIMER
               COMMAND
0E2C AD FF FF             LDA $FFFF
0E2F 20 C7 08             JSR STOPTIMER
0E32 A9 04                LDA #4
0E34 4C CB 0C             JMP COMPARE
                          .BEND


               MA
                          .BLOCK
0E37 AD 73 0C             LDA CMD
0E3A 8D 40 0E             STA COMMAND
0E3D 20 92 08             JSR STARTTIMER
               COMMAND
0E40 AD FF FF             LDA $FFFF
0E43 20 C7 08             JSR STOPTIMER
0E46 A9 06                LDA #6
0E48 4C CB 0C             JMP COMPARE
                          .BEND


               RAX
               RAY
                          .BLOCK
0E4B 20 47 0A             JSR SAVESTACK
0E4E AD 73 0C             LDA CMD
0E51 8D 5B 0E             STA NOWRAP
0E54 20 92 08             JSR STARTTIMER
0E57 A2 00                LDX #0
0E59 A0 00                LDY #0
               NOWRAP
0E5B AD FF FF             LDA $FFFF
0E5E 20 C7 08             JSR STOPTIMER
0E61 20 57 0A             JSR RESTORESTACK
0E64 A9 08                LDA #8
0E66 20 CB 0C             JSR COMPARE
0E69 20 47 0A             JSR SAVESTACK
0E6C AD 73 0C             LDA CMD
0E6F 8D 79 0E             STA WRAP
0E72 20 92 08             JSR STARTTIMER
0E75 A2 03                LDX #3
0E77 A0 03                LDY #3
               WRAP
0E79 AD FF FF             LDA $FFFF
0E7C 20 C7 08             JSR STOPTIMER
0E7F 20 57 0A             JSR RESTORESTACK
0E82 A9 09                LDA #9
0E84 4C CB 0C             JMP COMPARE
                          .BEND


               WAX
               WAY
                          .BLOCK
0E87 20 47 0A             JSR SAVESTACK
0E8A AD 73 0C             LDA CMD
0E8D 8D 97 0E             STA NOWRAP
0E90 20 92 08             JSR STARTTIMER
0E93 A2 00                LDX #0
0E95 A0 00                LDY #0
               NOWRAP
0E97 AD FF FF             LDA $FFFF
0E9A 20 C7 08             JSR STOPTIMER
0E9D 20 57 0A             JSR RESTORESTACK
0EA0 A9 09                LDA #9
0EA2 20 CB 0C             JSR COMPARE
0EA5 20 47 0A             JSR SAVESTACK
0EA8 AD 73 0C             LDA CMD
0EAB 8D B5 0E             STA WRAP
0EAE 20 92 08             JSR STARTTIMER
0EB1 A2 03                LDX #3
0EB3 A0 03                LDY #3
               WRAP
0EB5 AD FF FF             LDA $FFFF
0EB8 20 C7 08             JSR STOPTIMER
0EBB 20 57 0A             JSR RESTORESTACK
0EBE A9 09                LDA #9
0EC0 4C CB 0C             JMP COMPARE
                          .BEND


               MAX
               MAY
                          .BLOCK
0EC3 20 47 0A             JSR SAVESTACK
0EC6 AD 73 0C             LDA CMD
0EC9 8D D3 0E             STA NOWRAP
0ECC 20 92 08             JSR STARTTIMER
0ECF A2 00                LDX #0
0ED1 A0 00                LDY #0
               NOWRAP
0ED3 AD FF FF             LDA $FFFF
0ED6 20 C7 08             JSR STOPTIMER
0ED9 20 57 0A             JSR RESTORESTACK
0EDC A9 0B                LDA #11
0EDE 20 CB 0C             JSR COMPARE
0EE1 20 47 0A             JSR SAVESTACK
0EE4 AD 73 0C             LDA CMD
0EE7 8D F1 0E             STA WRAP
0EEA 20 92 08             JSR STARTTIMER
0EED A2 03                LDX #3
0EEF A0 03                LDY #3
               WRAP
0EF1 AD FF FF             LDA $FFFF
0EF4 20 C7 08             JSR STOPTIMER
0EF7 20 57 0A             JSR RESTORESTACK
0EFA A9 0B                LDA #11
0EFC 4C CB 0C             JMP COMPARE
                          .BEND


               RIX
               WIX
                          .BLOCK
0EFF A9 FF                LDA #$FF
0F01 85 AC                STA 172
0F03 85 AD                STA 173
0F05 AD 73 0C             LDA CMD
0F08 8D 10 0F             STA NOWRAP
0F0B 20 92 08             JSR STARTTIMER
0F0E A2 00                LDX #0
               NOWRAP
0F10 A1 AC                LDA (172,X)
0F12 20 C7 08             JSR STOPTIMER
0F15 A9 08                LDA #8
0F17 20 CB 0C             JSR COMPARE
0F1A AD 73 0C             LDA CMD
0F1D 8D 25 0F             STA WRAP
0F20 20 92 08             JSR STARTTIMER
0F23 A2 FF                LDX #$FF
               WRAP
0F25 A1 AD                LDA (173,X)
0F27 20 C7 08             JSR STOPTIMER
0F2A A9 08                LDA #8
0F2C 4C CB 0C             JMP COMPARE
                          .BEND


               MIX
                          .BLOCK
0F2F A9 FF                LDA #$FF
0F31 85 AC                STA 172
0F33 85 AD                STA 173
0F35 AD 73 0C             LDA CMD
0F38 8D 40 0F             STA NOWRAP
0F3B 20 92 08             JSR STARTTIMER
0F3E A2 00                LDX #0
               NOWRAP
0F40 A1 AC                LDA (172,X)
0F42 20 C7 08             JSR STOPTIMER
0F45 A9 0A                LDA #10
0F47 20 CB 0C             JSR COMPARE
0F4A AD 73 0C             LDA CMD
0F4D 8D 55 0F             STA WRAP
0F50 20 92 08             JSR STARTTIMER
0F53 A2 FF                LDX #$FF
               WRAP
0F55 A1 AD                LDA (173,X)
0F57 20 C7 08             JSR STOPTIMER
0F5A A9 0A                LDA #10
0F5C 4C CB 0C             JMP COMPARE
                          .BEND


               RIY
                          .BLOCK
0F5F A9 FF                LDA #$FF
0F61 85 AC                STA 172
0F63 85 AD                STA 173
0F65 AD 73 0C             LDA CMD
0F68 8D 70 0F             STA NOWRAP
0F6B 20 92 08             JSR STARTTIMER
0F6E A0 00                LDY #0
               NOWRAP
0F70 B1 AC                LDA (172),Y
0F72 20 C7 08             JSR STOPTIMER
0F75 A9 07                LDA #7
0F77 20 CB 0C             JSR COMPARE
0F7A AD 73 0C             LDA CMD
0F7D 8D 85 0F             STA WRAP
0F80 20 92 08             JSR STARTTIMER
0F83 A0 03                LDY #3
               WRAP
0F85 B1 AC                LDA (172),Y
0F87 20 C7 08             JSR STOPTIMER
0F8A A9 08                LDA #8
0F8C 4C CB 0C             JMP COMPARE
                          .BEND


               WIY
                          .BLOCK
0F8F A9 FF                LDA #$FF
0F91 85 AC                STA 172
0F93 85 AD                STA 173
0F95 AD 73 0C             LDA CMD
0F98 8D A0 0F             STA NOWRAP
0F9B 20 92 08             JSR STARTTIMER
0F9E A0 00                LDY #0
               NOWRAP
0FA0 B1 AC                LDA (172),Y
0FA2 20 C7 08             JSR STOPTIMER
0FA5 A9 08                LDA #8
0FA7 20 CB 0C             JSR COMPARE
0FAA AD 73 0C             LDA CMD
0FAD 8D B5 0F             STA WRAP
0FB0 20 92 08             JSR STARTTIMER
0FB3 A0 03                LDY #3
               WRAP
0FB5 B1 AC                LDA (172),Y
0FB7 20 C7 08             JSR STOPTIMER
0FBA A9 08                LDA #8
0FBC 4C CB 0C             JMP COMPARE
                          .BEND


               MIY
                          .BLOCK
0FBF A9 FF                LDA #$FF
0FC1 85 AC                STA 172
0FC3 85 AD                STA 173
0FC5 AD 73 0C             LDA CMD
0FC8 8D D0 0F             STA NOWRAP
0FCB 20 92 08             JSR STARTTIMER
0FCE A0 00                LDY #0
               NOWRAP
0FD0 B1 AC                LDA (172),Y
0FD2 20 C7 08             JSR STOPTIMER
0FD5 A9 0A                LDA #10
0FD7 20 CB 0C             JSR COMPARE
0FDA AD 73 0C             LDA CMD
0FDD 8D E5 0F             STA WRAP
0FE0 20 92 08             JSR STARTTIMER
0FE3 A0 03                LDY #3
               WRAP
0FE5 B1 AC                LDA (172),Y
0FE7 20 C7 08             JSR STOPTIMER
0FEA A9 0A                LDA #10
0FEC 4C CB 0C             JMP COMPARE
                          .BEND


               R
                          .BLOCK
               FROM       = $2000
               TO         = $2000
0FEF A2 F7                LDX #$F7
0FF1 AD 73 0C             LDA CMD
0FF4 8D FE 1F             STA FROM-2
0FF7 29 20                AND #$20
0FF9 F0 02                BEQ CLEAR
0FFB A2 34                LDX #$34
               CLEAR
0FFD 8A                   TXA
0FFE 48                   PHA
0FFF A9 00                LDA #TO-FROM&$FF
1001 8D FF 1F             STA FROM-1
1004 A9 60                LDA #$60
1006 8D 00 20             STA TO
1009 20 92 08             JSR STARTTIMER
100C 28                   PLP
100D 20 FE 1F             JSR FROM-2
1010 20 C7 08             JSR STOPTIMER
1013 A9 12                LDA #18
1015 20 CB 0C             JSR COMPARE
                          .BEND

                          .BLOCK
               FROM       = $2000
               TO         = $2000
1018 A2 34                LDX #$34
101A AD 73 0C             LDA CMD
101D 8D FE 1F             STA FROM-2
1020 29 20                AND #$20
1022 F0 02                BEQ CLEAR
1024 A2 F7                LDX #$F7
               CLEAR
1026 8A                   TXA
1027 48                   PHA
1028 A9 00                LDA #TO-FROM&$FF
102A 8D FF 1F             STA FROM-1
102D A9 60                LDA #$60
102F 8D 00 20             STA TO
1032 20 92 08             JSR STARTTIMER
1035 28                   PLP
1036 20 FE 1F             JSR FROM-2
1039 20 C7 08             JSR STOPTIMER
103C A9 13                LDA #19
103E 20 CB 0C             JSR COMPARE
                          .BEND

                          .BLOCK
               FROM       = $2000
               TO         = $207F
1041 A2 34                LDX #$34
1043 AD 73 0C             LDA CMD
1046 8D FE 1F             STA FROM-2
1049 29 20                AND #$20
104B F0 02                BEQ CLEAR
104D A2 F7                LDX #$F7
               CLEAR
104F 8A                   TXA
1050 48                   PHA
1051 A9 7F                LDA #TO-FROM&$FF
1053 8D FF 1F             STA FROM-1
1056 A9 60                LDA #$60
1058 8D 7F 20             STA TO
105B 20 92 08             JSR STARTTIMER
105E 28                   PLP
105F 20 FE 1F             JSR FROM-2
1062 20 C7 08             JSR STOPTIMER
1065 A9 13                LDA #19
1067 20 CB 0C             JSR COMPARE
                          .BEND

                          .BLOCK
               FROM       = $1FFF
               TO         = $2000
106A A2 34                LDX #$34
106C AD 73 0C             LDA CMD
106F 8D FD 1F             STA FROM-2
1072 29 20                AND #$20
1074 F0 02                BEQ CLEAR
1076 A2 F7                LDX #$F7
               CLEAR
1078 8A                   TXA
1079 48                   PHA
107A A9 01                LDA #TO-FROM&$FF
107C 8D FE 1F             STA FROM-1
107F A9 60                LDA #$60
1081 8D 00 20             STA TO
1084 20 92 08             JSR STARTTIMER
1087 28                   PLP
1088 20 FD 1F             JSR FROM-2
108B 20 C7 08             JSR STOPTIMER
108E A9 14                LDA #20
1090 20 CB 0C             JSR COMPARE
                          .BEND

                          .BLOCK
               FROM       = $1FFF
               TO         = $207E
1093 A2 34                LDX #$34
1095 AD 73 0C             LDA CMD
1098 8D FD 1F             STA FROM-2
109B 29 20                AND #$20
109D F0 02                BEQ CLEAR
109F A2 F7                LDX #$F7
               CLEAR
10A1 8A                   TXA
10A2 48                   PHA
10A3 A9 7F                LDA #TO-FROM&$FF
10A5 8D FE 1F             STA FROM-1
10A8 A9 60                LDA #$60
10AA 8D 7E 20             STA TO
10AD 20 92 08             JSR STARTTIMER
10B0 28                   PLP
10B1 20 FD 1F             JSR FROM-2
10B4 20 C7 08             JSR STOPTIMER
10B7 A9 14                LDA #20
10B9 20 CB 0C             JSR COMPARE
                          .BEND

                          .BLOCK
               FROM       = $1FFF
               TO         = $1FFC
10BC A2 34                LDX #$34
10BE AD 73 0C             LDA CMD
10C1 8D FD 1F             STA FROM-2
10C4 29 20                AND #$20
10C6 F0 02                BEQ CLEAR
10C8 A2 F7                LDX #$F7
               CLEAR
10CA 8A                   TXA
10CB 48                   PHA
10CC A9 FD                LDA #TO-FROM&$FF
10CE 8D FE 1F             STA FROM-1
10D1 A9 60                LDA #$60
10D3 8D FC 1F             STA TO
10D6 20 92 08             JSR STARTTIMER
10D9 28                   PLP
10DA 20 FD 1F             JSR FROM-2
10DD 20 C7 08             JSR STOPTIMER
10E0 A9 13                LDA #19
10E2 20 CB 0C             JSR COMPARE
                          .BEND

                          .BLOCK
               FROM       = $1FFF
               TO         = $1F7F
10E5 A2 34                LDX #$34
10E7 AD 73 0C             LDA CMD
10EA 8D FD 1F             STA FROM-2
10ED 29 20                AND #$20
10EF F0 02                BEQ CLEAR
10F1 A2 F7                LDX #$F7
               CLEAR
10F3 8A                   TXA
10F4 48                   PHA
10F5 A9 80                LDA #TO-FROM&$FF
10F7 8D FE 1F             STA FROM-1
10FA A9 60                LDA #$60
10FC 8D 7F 1F             STA TO
10FF 20 92 08             JSR STARTTIMER
1102 28                   PLP
1103 20 FD 1F             JSR FROM-2
1106 20 C7 08             JSR STOPTIMER
1109 A9 13                LDA #19
110B 20 CB 0C             JSR COMPARE
                          .BEND

                          .BLOCK
               FROM       = $2000
               TO         = $1FFD
110E A2 34                LDX #$34
1110 AD 73 0C             LDA CMD
1113 8D FE 1F             STA FROM-2
1116 29 20                AND #$20
1118 F0 02                BEQ CLEAR
111A A2 F7                LDX #$F7
               CLEAR
111C 8A                   TXA
111D 48                   PHA
111E A9 FD                LDA #TO-FROM&$FF
1120 8D FF 1F             STA FROM-1
1123 A9 60                LDA #$60
1125 8D FD 1F             STA TO
1128 20 92 08             JSR STARTTIMER
112B 28                   PLP
112C 20 FE 1F             JSR FROM-2
112F 20 C7 08             JSR STOPTIMER
1132 A9 14                LDA #20
1134 20 CB 0C             JSR COMPARE
                          .BEND

                          .BLOCK
               FROM       = $2000
               TO         = $1F80
1137 A2 34                LDX #$34
1139 AD 73 0C             LDA CMD
113C 8D FE 1F             STA FROM-2
113F 29 20                AND #$20
1141 F0 02                BEQ CLEAR
1143 A2 F7                LDX #$F7
               CLEAR
1145 8A                   TXA
1146 48                   PHA
1147 A9 80                LDA #TO-FROM&$FF
1149 8D FF 1F             STA FROM-1
114C A9 60                LDA #$60
114E 8D 80 1F             STA TO
1151 20 92 08             JSR STARTTIMER
1154 28                   PLP
1155 20 FE 1F             JSR FROM-2
1158 20 C7 08             JSR STOPTIMER
115B A9 14                LDA #20
115D 20 CB 0C             JSR COMPARE
                          .BEND

1160 60                   RTS


               BRKN
1161 A9 7F                LDA #$7F
1163 8D 0D DC             STA $DC0D
1166 A9 35                LDA #$35
1168 85 01                STA 1
116A A9 78                LDA #<BREAK
116C 8D FE FF             STA $FFFE
116F A9 11                LDA #>BREAK
1171 8D FF FF             STA $FFFF
1174 20 92 08             JSR STARTTIMER
1177 00                   BRK
               BREAK
1178 20 C7 08             JSR STOPTIMER
117B 68                   PLA
117C 68                   PLA
117D 68                   PLA
117E A9 37                LDA #$37
1180 85 01                STA 1
1182 A9 81                LDA #$81
1184 8D 0D DC             STA $DC0D
1187 A9 07                LDA #7
1189 4C CB 0C             JMP COMPARE


               PHAN
               PHPN
                          .BLOCK
118C AD 73 0C             LDA CMD
118F 8D 95 11             STA COMMAND
1192 20 92 08             JSR STARTTIMER
               COMMAND
1195 48                   PHA
1196 20 C7 08             JSR STOPTIMER
1199 68                   PLA
119A A9 03                LDA #3
119C 4C CB 0C             JMP COMPARE
                          .BEND


               PLAN
               PLPN
                          .BLOCK
119F AD 73 0C             LDA CMD
11A2 8D AB 11             STA COMMAND
11A5 A9 F7                LDA #$F7
11A7 48                   PHA
11A8 20 92 08             JSR STARTTIMER
               COMMAND
11AB 68                   PLA
11AC 20 C7 08             JSR STOPTIMER
11AF A9 04                LDA #4
11B1 4C CB 0C             JMP COMPARE
                          .BEND


               JMPW
                          .BLOCK
11B4 20 92 08             JSR STARTTIMER
11B7 4C BA 11             JMP CONTINUE
               CONTINUE
11BA 20 C7 08             JSR STOPTIMER
11BD A9 03                LDA #3
11BF 4C CB 0C             JMP COMPARE
                          .BEND


               JMPI
                          .BLOCK
11C2 A9 D2                LDA #<NOWRAP
11C4 8D 00 20             STA $2000
11C7 A9 11                LDA #>NOWRAP
11C9 8D 01 20             STA $2001
11CC 20 92 08             JSR STARTTIMER
11CF 6C 00 20             JMP ($2000)
               NOWRAP
11D2 20 C7 08             JSR STOPTIMER
11D5 A9 05                LDA #5
11D7 20 CB 0C             JSR COMPARE
11DA A9 EA                LDA #<WRAP
11DC 8D FF 1F             STA $1FFF
11DF A9 11                LDA #>WRAP
11E1 8D 00 1F             STA $1F00
11E4 20 92 08             JSR STARTTIMER
11E7 6C FF 1F             JMP ($1FFF)
               WRAP
11EA 20 C7 08             JSR STOPTIMER
11ED A9 05                LDA #5
11EF 4C CB 0C             JMP COMPARE
                          .BEND


               JSRW
                          .BLOCK
11F2 20 92 08             JSR STARTTIMER
11F5 20 F8 11             JSR CONTINUE
               CONTINUE
11F8 20 C7 08             JSR STOPTIMER
11FB 68                   PLA
11FC 68                   PLA
11FD A9 06                LDA #6
11FF 4C CB 0C             JMP COMPARE
                          .BEND


               RTSN
                          .BLOCK
1202 A9 12                LDA #>CONTINUE-1
1204 48                   PHA
1205 A9 0B                LDA #<CONTINUE-1
1207 48                   PHA
1208 20 92 08             JSR STARTTIMER
120B 60                   RTS
               CONTINUE
120C 20 C7 08             JSR STOPTIMER
120F A9 06                LDA #6
1211 4C CB 0C             JMP COMPARE
                          .BEND


               RTIN
                          .BLOCK
1214 A9 12                LDA #>CONTINUE
1216 48                   PHA
1217 A9 20                LDA #<CONTINUE
1219 48                   PHA
121A 78                   SEI
121B 08                   PHP
121C 20 92 08             JSR STARTTIMER
121F 40                   RTI
               CONTINUE
1220 20 C7 08             JSR STOPTIMER
1223 A9 06                LDA #6
1225 4C CB 0C             JMP COMPARE
                          .BEND


               HLTN
1228 60                   RTS

