
                          *= $0801
0801 4C 14 08 00 97
                          .BYTE $4C,$14,$08,$00,$97
               TURBOASS   = 780
0806 37 38 30             .TEXT "780"
0809 2C 30 3A 9E 32 30
                          .BYTE $2C,$30,$3A,$9E,$32,$30
080F 37 33 00 00 00
                          .BYTE $37,$33,$00,$00,$00
0814 A9 01                LDA #1
0816 8D 0C 03             STA TURBOASS
0819 4C 86 08             JMP MAIN


               PRINT
                          .BLOCK
081C 68                   PLA
081D 8D 27 08             STA PRINT0+1
0820 68                   PLA
0821 8D 28 08             STA PRINT0+2
0824 A2 01                LDX #1
               PRINT0
0826 BD 11 11             LDA $1111,X
0829 F0 06                BEQ PRINT1
082B 20 D2 FF             JSR $FFD2
082E E8                   INX
082F D0 F5                BNE PRINT0
               PRINT1
0831 38                   SEC
0832 8A                   TXA
0833 6D 27 08             ADC PRINT0+1
0836 8D 42 08             STA PRINT2+1
0839 A9 00                LDA #0
083B 6D 28 08             ADC PRINT0+2
083E 8D 43 08             STA PRINT2+2
               PRINT2
0841 4C 11 11             JMP $1111
                          .BEND


               PRINTHB
                          .BLOCK
0844 48                   PHA
0845 4A                   LSR A
0846 4A                   LSR A
0847 4A                   LSR A
0848 4A                   LSR A
0849 20 4F 08             JSR PRINTHN
084C 68                   PLA
084D 29 0F                AND #$0F
               PRINTHN
084F 09 30                ORA #$30
0851 C9 3A                CMP #$3A
0853 90 02                BCC PRINTHN0
0855 69 06                ADC #6
               PRINTHN0
0857 20 D2 FF             JSR $FFD2
085A 60                   RTS
                          .BEND


               WAITBORDER
                          .BLOCK
085B AD 11 D0             LDA $D011
085E 30 07                BMI OK
               WAIT
0860 AD 12 D0             LDA $D012
0863 C9 1E                CMP #30
0865 B0 F9                BCS WAIT
               OK
0867 60                   RTS
                          .BEND


               WAITKEY
                          .BLOCK
0868 20 A3 FD             JSR $FDA3
               WAIT
086B 20 E4 FF             JSR $FFE4
086E F0 FB                BEQ WAIT
0870 C9 03                CMP #3
0872 F0 01                BEQ STOP
0874 60                   RTS
               STOP
0875 AD 0C 03             LDA TURBOASS
0878 F0 03                BEQ BASIC
087A 4C 00 80             JMP $8000
               BASIC
087D 4C 74 A4             JMP $A474
                          .BEND

               ;---------------------------------------

0880 00        INDEX      .BYTE 0
0881 00        REG        .BYTE 0
0882 04 06 01 0D
               AREG       .BYTE $04,$06,$01,$0D

               MAIN
0886 20 1C 08             JSR PRINT
0889 0D 91                .BYTE 13,145
088B 43 49 41 31 54 41 42
                          .TEXT "CIA1TAB"
0892 00                   .BYTE 0

0893 A2 7E                LDX #$7E
0895 A9 EA                LDA #$EA ;NOP
               MAKECHAIN
0897 9D 00 20             STA $2000,X
089A CA                   DEX
089B 10 FA                BPL MAKECHAIN
089D A9 60                LDA #$60 ;RTS
089F 8D 7F 20             STA $207F

08A2 78                   SEI
08A3 A9 00                LDA #0
08A5 8D 0C 09             STA WRITE+1
08A8 8D 81 08             STA REG
               NEXTREG
08AB A9 00                LDA #0
08AD 8D 80 08             STA INDEX
               NEXTINDEX
08B0 A9 FF                LDA #$FF
08B2 8D 03 DC             STA $DC03
08B5 A9 00                LDA #$00
08B7 8D 01 DC             STA $DC01
08BA 8D 0E DC             STA $DC0E
08BD 8D 0F DC             STA $DC0F
08C0 A9 7F                LDA #$7F
08C2 8D 0D DC             STA $DC0D
08C5 2C 0D DC             BIT $DC0D
08C8 A9 15                LDA #21
08CA 8D 04 DC             STA $DC04
08CD A9 02                LDA #2
08CF 8D 06 DC             STA $DC06
08D2 A2 00                LDX #0
08D4 8E 05 DC             STX $DC05
08D7 8E 07 DC             STX $DC07
08DA 8D 04 DC             STA $DC04
08DD A9 82                LDA #$82
08DF 8D 0D DC             STA $DC0D
08E2 AD 80 08             LDA INDEX
08E5 49 FF                EOR #$FF
08E7 4A                   LSR A
08E8 08                   PHP
08E9 8D 06 09             STA JUMP+1
08EC AE 81 08             LDX REG
08EF BD 82 08             LDA AREG,X
08F2 8D 09 09             STA READREG+1
08F5 20 5B 08             JSR WAITBORDER
08F8 A9 47                LDA #%01000111
08FA 8D 0F DC             STA $DC0F
08FD A9 03                LDA #%00000011
08FF 8D 0E DC             STA $DC0E
0902 28                   PLP
0903 90 00                BCC JUMP
               JUMP
0905 20 11 20             JSR $2011
               READREG
0908 AD 11 DC             LDA $DC11
               WRITE
090B 8D 11 21             STA $2111
090E EE 0C 09             INC WRITE+1
0911 EE 80 08             INC INDEX
0914 AD 80 08             LDA INDEX
0917 C9 0C                CMP #12
0919 90 95                BCC NEXTINDEX
091B EE 81 08             INC REG
091E AD 81 08             LDA REG
0921 C9 04                CMP #4
0923 90 86                BCC NEXTREG

               ;---------------------------------------
               ;COMPARE RESULT

0925 4C 58 09             JMP COMPARE
0928 01 02 02 01 02 02
               RIGHT      .BYTE $01,$02,$02,$01,$02,$02
092E 01 02 02 01 02 02
                          .BYTE $01,$02,$02,$01,$02,$02
0934 02 02 02 01 01 01
                          .BYTE $02,$02,$02,$01,$01,$01
093A 00 00 02 02 02 02
                          .BYTE $00,$00,$02,$02,$02,$02
0940 80 C0 80 80 C0 80
                          .BYTE $80,$C0,$80,$80,$C0,$80
0946 80 C0 00 00 40 00
                          .BYTE $80,$C0,$00,$00,$40,$00
094C 00 01 01 01 01 01
                          .BYTE $00,$01,$01,$01,$01,$01
0952 01 01 03 83 83 83
                          .BYTE $01,$01,$03,$83,$83,$83
               COMPARE
0958 20 A3 FD             JSR $FDA3
095B 78                   SEI
095C A2 00                LDX #0
               COMP
095E BD 00 21             LDA $2100,X
0961 DD 28 09             CMP RIGHT,X
0964 D0 08                BNE DIFF
0966 E8                   INX
0967 E0 30                CPX #12*4
0969 90 F3                BCC COMP
096B 4C F4 09             JMP OK
               DIFF


               ;---------------------------------------
               ;PRINT RESULT

096E A0 00                LDY #0
0970 20 1C 08             JSR PRINT
0973 0D                   .BYTE 13
0974 54 41 20             .TEXT "TA "
0977 0D                   .BYTE 13
0978 20 20 20             .TEXT "   "
097B 00                   .BYTE 0
097C 20 AF 09             JSR PRINT12
097F 20 1C 08             JSR PRINT
0982 54 42 20             .TEXT "TB "
0985 0D                   .BYTE 13
0986 20 20 20             .TEXT "   "
0989 00                   .BYTE 0
098A 20 AF 09             JSR PRINT12
098D 20 1C 08             JSR PRINT
0990 50 42 20             .TEXT "PB "
0993 0D                   .BYTE 13
0994 20 20 20             .TEXT "   "
0997 00                   .BYTE 0
0998 20 AF 09             JSR PRINT12
099B 20 1C 08             JSR PRINT
099E 49 43 52             .TEXT "ICR"
09A1 0D                   .BYTE 13
09A2 20 20 20             .TEXT "   "
09A5 00                   .BYTE 0
09A6 20 AF 09             JSR PRINT12
09A9 20 68 08             JSR WAITKEY
09AC 4C F4 09             JMP OUTEND

               PRINT12
09AF A2 0C                LDX #12
               LOOP12
09B1 A9 20                LDA #32
09B3 20 D2 FF             JSR $FFD2
09B6 B9 28 09             LDA RIGHT,Y
09B9 20 44 08             JSR PRINTHB
09BC C6 D3                DEC 211
09BE C6 D3                DEC 211
09C0 C6 D3                DEC 211
09C2 A9 91                LDA #145
09C4 20 D2 FF             JSR $FFD2
09C7 A9 20                LDA #32
09C9 20 D2 FF             JSR $FFD2
09CC AD 86 02             LDA 646
09CF 48                   PHA
09D0 B9 00 21             LDA $2100,Y
09D3 D9 28 09             CMP RIGHT,Y
09D6 F0 07                BEQ NODIFF
09D8 48                   PHA
09D9 A9 02                LDA #2
09DB 8D 86 02             STA 646
09DE 68                   PLA
               NODIFF
09DF 20 44 08             JSR PRINTHB
09E2 68                   PLA
09E3 8D 86 02             STA 646
09E6 A9 11                LDA #17
09E8 20 D2 FF             JSR $FFD2
09EB C8                   INY
09EC CA                   DEX
09ED D0 C2                BNE LOOP12
09EF A9 0D                LDA #13
09F1 4C D2 FF             JMP $FFD2
               OUTEND


               ;---------------------------------------
               ;LOAD NEXT PART OF THE TEST SUITE

               OK
09F4 20 1C 08             JSR PRINT
09F7 20 2D 20 4F 4B
                          .TEXT " - OK"
09FC 0D 00                .BYTE 13,0
09FE AD 0C 03             LDA TURBOASS
0A01 F0 06                BEQ LOAD
0A03 20 68 08             JSR WAITKEY
0A06 4C 00 80             JMP $8000
               LOAD
0A09 20 1C 08             JSR PRINT
0A0C 4C 4F 41 44 54 48
               NAME       .TEXT "LOADTH"
               NAMELEN    = *-NAME
0A12 00                   .BYTE 0
0A13 A9 00                LDA #0
0A15 85 0A                STA $0A
0A17 85 B9                STA $B9
0A19 A9 06                LDA #NAMELEN
0A1B 85 B7                STA $B7
0A1D A9 0C                LDA #<NAME
0A1F 85 BB                STA $BB
0A21 A9 0A                LDA #>NAME
0A23 85 BC                STA $BC
0A25 68                   PLA
0A26 68                   PLA
0A27 4C 6F E1             JMP $E16F
