
                          *= $0801
0801 4C 14 08 00 97
                          .BYTE $4C,$14,$08,$00,$97
               TURBOASS   = 780
0806 37 38 30             .TEXT "780"
0809 2C 30 3A 9E 32 30
                          .BYTE $2C,$30,$3A,$9E,$32,$30
080F 37 33 00 00 00
                          .BYTE $37,$33,$00,$00,$00
0814 A9 01                LDA #1
0816 8D 0C 03             STA TURBOASS
0819 4C B7 09             JMP MAIN


               PCONFIG    = 172;173
081C 00 00 00 00
               DATA       .BYTE 0,0,0,0
0820 00 00     ABACKUP    .BYTE 0,0

0822 01 01 01 02
               TABLE      .BYTE $01,$01,$01,$02
0826 01 01 3D 02
                          .BYTE $01,$01,$3D,$02
082A 95 01 3D 02
                          .BYTE $95,$01,$3D,$02
082E 95 86 3D 02
                          .BYTE $95,$86,$3D,$02
0832 01 01 01 02
                          .BYTE $01,$01,$01,$02
0836 01 01 00 03
                          .BYTE $01,$01,$00,$03
083A 95 01 00 03
                          .BYTE $95,$01,$00,$03
083E 95 86 00 03
                          .BYTE $95,$86,$00,$03


               ROM
0842 A9 2F                LDA #$2F
0844 85 00                STA 0
0846 A9 37                LDA #$37
0848 85 01                STA 1
084A 58                   CLI
084B 60                   RTS


               PREPARE
084C 20 42 08             JSR ROM
084F 78                   SEI
0850 A9 02                LDA #$02
0852 8D 00 D0             STA $D000
0855 A9 34                LDA #$34
0857 85 01                STA 1
0859 A9 00                LDA #$00
085B 8D 00 A0             STA $A000
085E 8D 00 E0             STA $E000
0861 8D 00 D0             STA $D000
0864 60                   RTS


               COMPARE
                          .BLOCK
0865 A5 00                LDA 0
0867 8D A7 08             STA NEW0
086A A5 01                LDA 1
086C 8D A8 08             STA NEW1
086F EE 00 A0             INC $A000
0872 EE 00 E0             INC $E000
0875 EE 00 D0             INC $D000
0878 A9 2F                LDA #$2F
087A 85 00                STA 0
087C A9 30                LDA #$30
087E 85 01                STA 1
0880 AD 00 A0             LDA $A000
0883 A0 00                LDY #0
0885 D1 AC                CMP (PCONFIG),Y
0887 D0 20                BNE ERROR
0889 AD 00 E0             LDA $E000
088C C8                   INY
088D D1 AC                CMP (PCONFIG),Y
088F D0 18                BNE ERROR
0891 AD 00 D0             LDA $D000
0894 C8                   INY
0895 D1 AC                CMP (PCONFIG),Y
0897 D0 10                BNE ERROR
0899 A9 37                LDA #$37
089B 85 01                STA 1
089D AD 00 D0             LDA $D000
08A0 C8                   INY
08A1 D1 AC                CMP (PCONFIG),Y
08A3 D0 04                BNE ERROR
08A5 58                   CLI
08A6 60                   RTS
08A7 00        NEW0       .BYTE 0
08A8 00        NEW1       .BYTE 0
               ERROR
08A9 A9 37                LDA #$37
08AB 85 01                STA 1
08AD AD 00 D0             LDA $D000
08B0 48                   PHA
08B1 A9 30                LDA #$30
08B3 85 01                STA 1
08B5 AD 00 D0             LDA $D000
08B8 48                   PHA
08B9 AD 00 E0             LDA $E000
08BC 48                   PHA
08BD AD 00 A0             LDA $A000
08C0 48                   PHA
08C1 20 42 08             JSR ROM
08C4 20 76 0A             JSR PRINT
08C7 0D                   .BYTE 13
08C8 30 3D 30 20 31 3D 30 00
                          .NULL "0=0 1=0"
08D0 A0 00                LDY #0
               PRINTCONF
08D2 A9 20                LDA #32
08D4 20 D2 FF             JSR $FFD2
08D7 B9 1C 08             LDA DATA,Y
08DA 29 01                AND #$01
08DC 09 30                ORA #"0"
08DE 20 D2 FF             JSR $FFD2
08E1 A9 3D                LDA #"="
08E3 20 D2 FF             JSR $FFD2
08E6 B9 1C 08             LDA DATA,Y
08E9 4A                   LSR A
08EA 09 30                ORA #"0"
08EC 20 D2 FF             JSR $FFD2
08EF C8                   INY
08F0 C0 04                CPY #4
08F2 90 DE                BCC PRINTCONF
08F4 20 76 0A             JSR PRINT
08F7 0D                   .BYTE 13
08F8 41 46 54 45 52 20 20
                          .TEXT "AFTER  "
08FF 00                   .BYTE 0
0900 AD A7 08             LDA NEW0
0903 29 07                AND #$07
0905 09 30                ORA #"0"
0907 20 D2 FF             JSR $FFD2
090A A9 20                LDA #32
090C 20 D2 FF             JSR $FFD2
090F AD A8 08             LDA NEW1
0912 29 07                AND #$07
0914 09 30                ORA #"0"
0916 20 D2 FF             JSR $FFD2
0919 A9 20                LDA #32
091B 20 D2 FF             JSR $FFD2
091E 20 D2 FF             JSR $FFD2
0921 68                   PLA
0922 20 9E 0A             JSR PRINTHB
0925 A9 20                LDA #32
0927 20 D2 FF             JSR $FFD2
092A 68                   PLA
092B 20 9E 0A             JSR PRINTHB
092E A9 20                LDA #32
0930 20 D2 FF             JSR $FFD2
0933 68                   PLA
0934 20 9E 0A             JSR PRINTHB
0937 A9 20                LDA #32
0939 20 D2 FF             JSR $FFD2
093C 68                   PLA
093D 20 9E 0A             JSR PRINTHB
0940 20 76 0A             JSR PRINT
0943 0D                   .BYTE 13
0944 52 49 47 48 54 20 20
                          .TEXT "RIGHT  "
094B 00                   .BYTE 0
094C AD 20 08             LDA ABACKUP+0
094F 29 07                AND #$07
0951 09 30                ORA #"0"
0953 20 D2 FF             JSR $FFD2
0956 A9 20                LDA #32
0958 20 D2 FF             JSR $FFD2
095B AD 20 08             LDA ABACKUP+0
095E 49 FF                EOR #$FF
0960 0D 21 08             ORA ABACKUP+1
0963 29 07                AND #$07
0965 09 30                ORA #"0"
0967 20 D2 FF             JSR $FFD2
096A A9 20                LDA #32
096C 20 D2 FF             JSR $FFD2
096F 20 D2 FF             JSR $FFD2
0972 A0 00                LDY #0
0974 B1 AC                LDA (PCONFIG),Y
0976 20 9E 0A             JSR PRINTHB
0979 A9 20                LDA #32
097B 20 D2 FF             JSR $FFD2
097E A0 01                LDY #1
0980 B1 AC                LDA (PCONFIG),Y
0982 20 9E 0A             JSR PRINTHB
0985 A9 20                LDA #32
0987 20 D2 FF             JSR $FFD2
098A A0 02                LDY #2
098C B1 AC                LDA (PCONFIG),Y
098E 20 9E 0A             JSR PRINTHB
0991 A9 20                LDA #32
0993 20 D2 FF             JSR $FFD2
0996 A0 03                LDY #3
0998 B1 AC                LDA (PCONFIG),Y
099A 20 9E 0A             JSR PRINTHB
099D A9 0D                LDA #13
099F 20 D2 FF             JSR $FFD2
               WAITKEY
09A2 20 E4 FF             JSR $FFE4
09A5 F0 FB                BEQ WAITKEY
09A7 C9 03                CMP #$03
09A9 F0 01                BEQ STOP
09AB 60                   RTS
               STOP
09AC AD 0C 03             LDA TURBOASS
09AF F0 03                BEQ BASIC
09B1 4C 00 80             JMP $8000
               BASIC
09B4 4C 74 A4             JMP $A474
                          .BEND


               MAIN
09B7 20 76 0A             JSR PRINT
09BA 0D                   .BYTE 13
09BB 91 4D 4D 55
                          .TEXT "‘MMU"
09BF 00                   .BYTE 0

09C0 A9 00                LDA #0
09C2 8D 1C 08             STA DATA+0
09C5 8D 1D 08             STA DATA+1
09C8 8D 1E 08             STA DATA+2
09CB 8D 1F 08             STA DATA+3

               NEXTCONFIG

09CE 20 4C 08             JSR PREPARE

09D1 A0 00                LDY #0
09D3 84 00                STY 0
09D5 84 01                STY 1
09D7 8C 20 08             STY ABACKUP+0
09DA 8C 21 08             STY ABACKUP+1
               STORE
09DD B9 1C 08             LDA DATA,Y
09E0 29 01                AND #1
09E2 AA                   TAX
09E3 B9 1C 08             LDA DATA,Y
09E6 95 00                STA 0,X
09E8 9D 20 08             STA ABACKUP,X
09EB C8                   INY
09EC C0 04                CPY #4
09EE 90 ED                BCC STORE

09F0 AD 20 08             LDA ABACKUP+0
09F3 49 FF                EOR #$FF
09F5 0D 21 08             ORA ABACKUP+1
09F8 29 07                AND #$07
09FA 0A                   ASL A
09FB 0A                   ASL A
09FC 69 22                ADC #<TABLE
09FE 85 AC                STA PCONFIG+0
0A00 A9 00                LDA #0
0A02 69 08                ADC #>TABLE
0A04 85 AD                STA PCONFIG+1
0A06 20 65 08             JSR COMPARE

0A09 AE 1C 08             LDX DATA+0
0A0C E8                   INX
0A0D 8A                   TXA
0A0E 29 0F                AND #$0F
0A10 8D 1C 08             STA DATA+0
0A13 D0 B9                BNE NEXTCONFIG
0A15 AE 1D 08             LDX DATA+1
0A18 E8                   INX
0A19 8A                   TXA
0A1A 29 0F                AND #$0F
0A1C 8D 1D 08             STA DATA+1
0A1F D0 AD                BNE NEXTCONFIG
0A21 AE 1E 08             LDX DATA+2
0A24 E8                   INX
0A25 8A                   TXA
0A26 29 0F                AND #$0F
0A28 8D 1E 08             STA DATA+2
0A2B D0 A1                BNE NEXTCONFIG
0A2D AE 1F 08             LDX DATA+3
0A30 E8                   INX
0A31 8A                   TXA
0A32 29 0F                AND #$0F
0A34 8D 1F 08             STA DATA+3
0A37 D0 95                BNE NEXTCONFIG


               OK
0A39 20 76 0A             JSR PRINT
0A3C 20 2D 20 4F 4B
                          .TEXT " - OK"
0A41 0D 00                .BYTE 13,0
0A43 AD 0C 03             LDA TURBOASS
0A46 F0 08                BEQ LOAD
0A48 20 E4 FF  WAIT       JSR $FFE4
0A4B F0 FB                BEQ WAIT
0A4D 4C 00 80             JMP $8000

               LOAD
0A50 A9 2F                LDA #47
0A52 85 00                STA 0
0A54 20 76 0A             JSR PRINT
0A57 43 50 55 50 4F 52 54
               NAME       .TEXT "CPUPORT"
               NAMELEN    = *-NAME
0A5E 00                   .BYTE 0
0A5F A9 00                LDA #0
0A61 85 0A                STA $0A
0A63 85 B9                STA $B9
0A65 A9 07                LDA #NAMELEN
0A67 85 B7                STA $B7
0A69 A9 57                LDA #<NAME
0A6B 85 BB                STA $BB
0A6D A9 0A                LDA #>NAME
0A6F 85 BC                STA $BC
0A71 68                   PLA
0A72 68                   PLA
0A73 4C 6F E1             JMP $E16F


0A76 68        PRINT      PLA
                          .BLOCK
0A77 8D 81 0A             STA PRINT0+1
0A7A 68                   PLA
0A7B 8D 82 0A             STA PRINT0+2
0A7E A2 01                LDX #1
0A80 BD 80 0A  PRINT0     LDA !*,X
0A83 F0 06                BEQ PRINT1
0A85 20 D2 FF             JSR $FFD2
0A88 E8                   INX
0A89 D0 F5                BNE PRINT0
0A8B 38        PRINT1     SEC
0A8C 8A                   TXA
0A8D 6D 81 0A             ADC PRINT0+1
0A90 8D 9C 0A             STA PRINT2+1
0A93 A9 00                LDA #0
0A95 6D 82 0A             ADC PRINT0+2
0A98 8D 9D 0A             STA PRINT2+2
0A9B 4C 9B 0A  PRINT2     JMP !*
                          .BEND

               PRINTHB
                          .BLOCK
0A9E 48                   PHA
0A9F 4A                   LSR A
0AA0 4A                   LSR A
0AA1 4A                   LSR A
0AA2 4A                   LSR A
0AA3 20 A9 0A             JSR PRINTHN
0AA6 68                   PLA
0AA7 29 0F                AND #$0F
               PRINTHN
0AA9 09 30                ORA #$30
0AAB C9 3A                CMP #$3A
0AAD 90 02                BCC PRINTHN0
0AAF 69 06                ADC #6
               PRINTHN0
0AB1 20 D2 FF             JSR $FFD2
0AB4 60                   RTS
                          .BEND

