
                          *= $0801
0801 4C 14 08 00 97
                          .BYTE $4C,$14,$08,$00,$97
               TURBOASS   = 780
0806 37 38 30             .TEXT "780"
0809 2C 30 3A 9E 32 30
                          .BYTE $2C,$30,$3A,$9E,$32,$30
080F 37 33 00 00 00
                          .BYTE $37,$33,$00,$00,$00
0814 A9 01                LDA #1
0816 8D 0C 03             STA TURBOASS
0819 4C 26 08             JMP MAIN

               ROM
081C A9 2F                LDA #$2F
081E 85 00                STA 0
0820 A9 37                LDA #$37
0822 85 01                STA 1
0824 58                   CLI
0825 60                   RTS


               MAIN
0826 20 CB 09             JSR PRINT
0829 0D                   .BYTE 13
082A 91 4D 4D 55 46 45 54 43 48
                          .TEXT "‘MMUFETCH"
0833 00                   .BYTE 0

0834 20 1C 08             JSR ROM
0837 78                   SEI

               ;A000 RAM-ROM-RAM
0838 A0 01                LDY #1
083A 84 24                STY $24
083C 88                   DEY
083D 84 25                STY $25
083F A9 36                LDA #$36
0841 85 01                STA 1
0843 AD DF A4             LDA $A4DF
0846 48                   PHA
0847 AD E0 A4             LDA $A4E0
084A 48                   PHA
084B AD E1 A4             LDA $A4E1
084E 48                   PHA
084F AD E2 A4             LDA $A4E2
0852 48                   PHA
0853 AD E3 A4             LDA $A4E3
0856 48                   PHA
0857 A9 86                LDA #$86
0859 8D DF A4             STA $A4DF
085C A9 01                LDA #1
085E 8D E0 A4             STA $A4E0
0861 A9 00                LDA #0
0863 8D E1 A4             STA $A4E1
0866 8D E2 A4             STA $A4E2
0869 A9 60                LDA #$60
086B 8D E3 A4             STA $A4E3
086E A9 36                LDA #$36
0870 A2 37                LDX #$37
0872 20 DF A4             JSR $A4DF
0875 68                   PLA
0876 8D E3 A4             STA $A4E3
0879 68                   PLA
087A 8D E2 A4             STA $A4E2
087D 68                   PLA
087E 8D E1 A4             STA $A4E1
0881 68                   PLA
0882 8D E0 A4             STA $A4E0
0885 68                   PLA
0886 8D DF A4             STA $A4DF

               ;B000 RAM-ROM-RAM
0889 A0 01                LDY #1
088B 84 14                STY $14
088D 88                   DEY
088E 84 15                STY $15
0890 A9 36                LDA #$36
0892 85 01                STA 1
0894 AD 28 B8             LDA $B828
0897 48                   PHA
0898 AD 29 B8             LDA $B829
089B 48                   PHA
089C AD 2A B8             LDA $B82A
089F 48                   PHA
08A0 AD 2B B8             LDA $B82B
08A3 48                   PHA
08A4 AD 2C B8             LDA $B82C
08A7 48                   PHA
08A8 A9 86                LDA #$86
08AA 8D 28 B8             STA $B828
08AD A9 01                LDA #1
08AF 8D 29 B8             STA $B829
08B2 A9 00                LDA #0
08B4 8D 2A B8             STA $B82A
08B7 8D 2B B8             STA $B82B
08BA A9 60                LDA #$60
08BC 8D 2C B8             STA $B82C
08BF A9 36                LDA #$36
08C1 A2 37                LDX #$37
08C3 20 28 B8             JSR $B828
08C6 68                   PLA
08C7 8D 2C B8             STA $B82C
08CA 68                   PLA
08CB 8D 2B B8             STA $B82B
08CE 68                   PLA
08CF 8D 2A B8             STA $B82A
08D2 68                   PLA
08D3 8D 29 B8             STA $B829
08D6 68                   PLA
08D7 8D 28 B8             STA $B828

               ;E000 RAM-ROM-RAM
08DA A9 86                LDA #$86
08DC 8D 77 EA             STA $EA77
08DF A9 01                LDA #1
08E1 8D 78 EA             STA $EA78
08E4 A9 00                LDA #0
08E6 8D 79 EA             STA $EA79
08E9 8D 7A EA             STA $EA7A
08EC A9 60                LDA #$60
08EE 8D 7B EA             STA $EA7B
08F1 A9 35                LDA #$35
08F3 A2 37                LDX #$37
08F5 85 01                STA 1
08F7 20 77 EA             JSR $EA77

               ;F000 RAM-ROM-RAM
08FA A0 01                LDY #1
08FC 84 C3                STY $C3
08FE 88                   DEY
08FF 84 C4                STY $C4
0901 A9 86                LDA #$86
0903 8D 25 FD             STA $FD25
0906 A9 01                LDA #1
0908 8D 26 FD             STA $FD26
090B A9 00                LDA #0
090D 8D 27 FD             STA $FD27
0910 8D 28 FD             STA $FD28
0913 A9 60                LDA #$60
0915 8D 29 FD             STA $FD29
0918 A9 35                LDA #$35
091A A2 37                LDX #$37
091C 85 01                STA 1
091E 20 25 FD             JSR $FD25

               ;D000 RAM-ROM-RAM
0921 A5 91                LDA $91
0923 48                   PHA
0924 A5 92                LDA $92
0926 48                   PHA
0927 A0 01                LDY #1
0929 84 91                STY $91
092B 88                   DEY
092C 84 92                STY $92
092E A9 34                LDA #$34
0930 85 01                STA 1
0932 A9 86                LDA #$86
0934 8D 00 D4             STA $D400
0937 A9 01                LDA #1
0939 8D 01 D4             STA $D401
093C A9 00                LDA #0
093E 8D 02 D4             STA $D402
0941 8D 03 D4             STA $D403
0944 A9 60                LDA #$60
0946 8D 04 D4             STA $D404
0949 A9 34                LDA #$34
094B A2 33                LDX #$33
094D 85 01                STA 1
094F 20 00 D4             JSR $D400
0952 68                   PLA
0953 85 92                STA $92
0955 68                   PLA
0956 85 91                STA $91

               ;D000 RAM-IO-RAM
0958 A9 37                LDA #$37
095A 85 01                STA 1
095C A9 85                LDA #$85
095E 8D 02 D0             STA $D002
0961 A9 01                LDA #1
0963 8D 03 D0             STA $D003
0966 A9 00                LDA #0
0968 8D 04 D0             STA $D004
096B A9 33                LDA #$33
096D 85 01                STA 1
096F A9 86                LDA #$86
0971 8D 00 D0             STA $D000
0974 A9 01                LDA #1
0976 8D 01 D0             STA $D001
0979 A9 00                LDA #0
097B 8D 02 D0             STA $D002
097E 8D 03 D0             STA $D003
0981 A9 60                LDA #$60
0983 8D 04 D0             STA $D004
0986 A9 34                LDA #$34
0988 A2 37                LDX #$37
098A 85 01                STA 1
098C 20 00 D0             JSR $D000

098F 20 1C 08             JSR ROM

               OK
0992 20 CB 09             JSR PRINT
0995 20 2D 20 4F 4B
                          .TEXT " - OK"
099A 0D 00                .BYTE 13,0
099C AD 0C 03             LDA TURBOASS
099F F0 08                BEQ LOAD
09A1 20 E4 FF  WAIT       JSR $FFE4
09A4 F0 FB                BEQ WAIT
09A6 4C 00 80             JMP $8000

               LOAD
09A9 A9 2F                LDA #47
09AB 85 00                STA 0
09AD 20 CB 09             JSR PRINT
09B0 4D 4D 55  NAME       .TEXT "MMU"
               NAMELEN    = *-NAME
09B3 00                   .BYTE 0
09B4 A9 00                LDA #0
09B6 85 0A                STA $0A
09B8 85 B9                STA $B9
09BA A9 03                LDA #NAMELEN
09BC 85 B7                STA $B7
09BE A9 B0                LDA #<NAME
09C0 85 BB                STA $BB
09C2 A9 09                LDA #>NAME
09C4 85 BC                STA $BC
09C6 68                   PLA
09C7 68                   PLA
09C8 4C 6F E1             JMP $E16F

09CB 68        PRINT      PLA
                          .BLOCK
09CC 8D D6 09             STA PRINT0+1
09CF 68                   PLA
09D0 8D D7 09             STA PRINT0+2
09D3 A2 01                LDX #1
09D5 BD D5 09  PRINT0     LDA !*,X
09D8 F0 06                BEQ PRINT1
09DA 20 D2 FF             JSR $FFD2
09DD E8                   INX
09DE D0 F5                BNE PRINT0
09E0 38        PRINT1     SEC
09E1 8A                   TXA
09E2 6D D6 09             ADC PRINT0+1
09E5 8D F1 09             STA PRINT2+1
09E8 A9 00                LDA #0
09EA 6D D7 09             ADC PRINT0+2
09ED 8D F2 09             STA PRINT2+2
09F0 4C F0 09  PRINT2     JMP !*
                          .BEND

               PRINTHB
                          .BLOCK
09F3 48                   PHA
09F4 4A                   LSR A
09F5 4A                   LSR A
09F6 4A                   LSR A
09F7 4A                   LSR A
09F8 20 FE 09             JSR PRINTHN
09FB 68                   PLA
09FC 29 0F                AND #$0F
               PRINTHN
09FE 09 30                ORA #$30
0A00 C9 3A                CMP #$3A
0A02 90 02                BCC PRINTHN0
0A04 69 06                ADC #6
               PRINTHN0
0A06 20 D2 FF             JSR $FFD2
0A09 60                   RTS
                          .BEND

